(lp0
(lp1
cnumpy.core.multiarray
scalar
p2
(cnumpy
dtype
p3
(S'f8'
p4
I0
I1
tp5
Rp6
(I3
S'<'
p7
NNNI-1
I-1
I0
tp8
bS'F;\xe3\xb0o\xc6\xc4@'
p9
tp10
Rp11
ag2
(g6
S'\xf1\xa0\x10\x16\x81\xc7\xc4@'
p12
tp13
Rp14
ag2
(g6
S'\n\xc3\xaa\xd1\xc7\x19\xc5@'
p15
tp16
Rp17
ag2
(g6
S'\n\xc3\xaa\xd1\xc7\x19\xc5@'
p18
tp19
Rp20
ag2
(g6
S'\n\xc3\xaa\xd1\xc7\x19\xc5@'
p21
tp22
Rp23
ag2
(g6
S'\n\xc3\xaa\xd1\xc7\x19\xc5@'
p24
tp25
Rp26
ag2
(g6
S'\n\xc3\xaa\xd1\xc7\x19\xc5@'
p27
tp28
Rp29
ag2
(g6
S'\n\xc3\xaa\xd1\xc7\x19\xc5@'
p30
tp31
Rp32
ag2
(g6
S'\n\xc3\xaa\xd1\xc7\x19\xc5@'
p33
tp34
Rp35
ag2
(g6
S'\n\xc3\xaa\xd1\xc7\x19\xc5@'
p36
tp37
Rp38
ag2
(g6
S'\n\xc3\xaa\xd1\xc7\x19\xc5@'
p39
tp40
Rp41
ag2
(g6
S'\n\xc3\xaa\xd1\xc7\x19\xc5@'
p42
tp43
Rp44
ag2
(g6
S'\n\xc3\xaa\xd1\xc7\x19\xc5@'
p45
tp46
Rp47
ag2
(g6
S'\x891\x18q\x10\x1a\xc5@'
p48
tp49
Rp50
ag2
(g6
S'\x891\x18q\x10\x1a\xc5@'
p51
tp52
Rp53
ag2
(g6
S'\x891\x18q\x10\x1a\xc5@'
p54
tp55
Rp56
ag2
(g6
S'\x891\x18q\x10\x1a\xc5@'
p57
tp58
Rp59
ag2
(g6
S'\x891\x18q\x10\x1a\xc5@'
p60
tp61
Rp62
ag2
(g6
S'\x891\x18q\x10\x1a\xc5@'
p63
tp64
Rp65
ag2
(g6
S'\x891\x18q\x10\x1a\xc5@'
p66
tp67
Rp68
aa(lp69
g2
(g6
S'lqN\x0f\xf4v\xc1@'
p70
tp71
Rp72
ag2
(g6
S't\xc2c<\xf0\x96\xc2@'
p73
tp74
Rp75
ag2
(g6
S'\x9a\xdc@\xa2\xd9^\xc3@'
p76
tp77
Rp78
ag2
(g6
S'\x86\xb8\xa81\x87/\xc2@'
p79
tp80
Rp81
ag2
(g6
S'\xa1\xb3G\xdf\x8f[\xc2@'
p82
tp83
Rp84
ag2
(g6
S'\xc6"\x86\xa0\x9a\xb8\xbe@'
p85
tp86
Rp87
ag2
(g6
S'\xbe\xf7:\xce\x96\xdf\xbe@'
p88
tp89
Rp90
ag2
(g6
S'\xbe\xf7:\xce\x96\xdf\xbe@'
p91
tp92
Rp93
ag2
(g6
S'\xbe\xf7:\xce\x96\xdf\xbe@'
p94
tp95
Rp96
ag2
(g6
S'\xb9\xd1\x81\xaa\x1a\xfb\xc0@'
p97
tp98
Rp99
ag2
(g6
S'\xa82\xea\x02\xa5\x1a\xc1@'
p100
tp101
Rp102
ag2
(g6
S'<\x19\x8d\xaa\xfe\xf2\xc1@'
p103
tp104
Rp105
ag2
(g6
S'\xae\x1e\x83{\xf3\x99\xc2@'
p106
tp107
Rp108
ag2
(g6
S'\x87\xf2>\x16\xe6\xc4\xc2@'
p109
tp110
Rp111
ag2
(g6
S'_\x91\x15\xb1\xe6i\xc3@'
p112
tp113
Rp114
ag2
(g6
S'_\x91\x15\xb1\xe6i\xc3@'
p115
tp116
Rp117
ag2
(g6
S'_\x91\x15\xb1\xe6i\xc3@'
p118
tp119
Rp120
ag2
(g6
S'U:Bz\xb2\xeb\xc3@'
p121
tp122
Rp123
ag2
(g6
S'(,\xad\x07Lh\xc4@'
p124
tp125
Rp126
ag2
(g6
S'\xe6>\xcc\x16Yh\xc4@'
p127
tp128
Rp129
aa(lp130
g2
(g6
S'H\xaa_.G1\xc0@'
p131
tp132
Rp133
ag2
(g6
S'>[bU2j\xc1@'
p134
tp135
Rp136
ag2
(g6
S'\xfd\x8dg|]\xe5\xc1@'
p137
tp138
Rp139
ag2
(g6
S'\x0f\x1f\xb9\xcc\x08\x01\xc1@'
p140
tp141
Rp142
ag2
(g6
S'P+x\xfe~\x1a\xc1@'
p143
tp144
Rp145
ag2
(g6
S'\xd4\xb4\xe2\x14C\xcc\xbe@'
p146
tp147
Rp148
ag2
(g6
S'\xf6\x139$~\x88\xbe@'
p149
tp150
Rp151
ag2
(g6
S'W\x9f\x98\xa9\xcd\x94\xbf@'
p152
tp153
Rp154
ag2
(g6
S'\xefG\xf0\xf9\xfc\x16\xbf@'
p155
tp156
Rp157
ag2
(g6
S'\xbdNB\xa3;i\xc0@'
p158
tp159
Rp160
ag2
(g6
S'I\xa5\xbd=\xd3\xcd\xc0@'
p161
tp162
Rp163
ag2
(g6
S'Ky\xe7E\xb4\xde\xc1@'
p164
tp165
Rp166
ag2
(g6
S'\x1d\xed\xce\xa9\xe3\x18\xc2@'
p167
tp168
Rp169
ag2
(g6
S'^k\x99\xf9wC\xc2@'
p170
tp171
Rp172
ag2
(g6
S'\x980\xf3\xc2:\x9d\xc2@'
p173
tp174
Rp175
ag2
(g6
S'\xc9h\xa7\xc6$S\xc2@'
p176
tp177
Rp178
ag2
(g6
S'%-`A`\xef\xc2@'
p179
tp180
Rp181
ag2
(g6
S'\xb8\x0e\x85X\x05\xb1\xc2@'
p182
tp183
Rp184
ag2
(g6
S':\xa3N\x8c\xcdA\xc3@'
p185
tp186
Rp187
ag2
(g6
S'\xec)\xab\xfc\xca\xd9\xc2@'
p188
tp189
Rp190
aa(lp191
g2
(g6
S'\x8e\x83\xb5\xed\xd6k\xc2@'
p192
tp193
Rp194
ag2
(g6
S'w\xe3i*\xb7"\xc3@'
p195
tp196
Rp197
ag2
(g6
S'\xd8#\xe3\x8eQ\xf5\xc3@'
p198
tp199
Rp200
ag2
(g6
S'p*\xa7c\x81I\xc4@'
p201
tp202
Rp203
ag2
(g6
S')\x19\xa2\xb2\x08v\xc4@'
p204
tp205
Rp206
ag2
(g6
S':\x89|^\xb2\xf3\xc3@'
p207
tp208
Rp209
ag2
(g6
S'\x93\x9d\xa5\x1a\x8a\x9a\xc3@'
p210
tp211
Rp212
ag2
(g6
S'\x0f\xa5\x03b\xa8G\xc2@'
p213
tp214
Rp215
ag2
(g6
S'\x03\xa5\xbaU`\x97\xc1@'
p216
tp217
Rp218
ag2
(g6
S'\x03\xa5\xbaU`\x97\xc1@'
p219
tp220
Rp221
ag2
(g6
S'\xdc\x10\x01\xc8\xa2\xaa\xc1@'
p222
tp223
Rp224
ag2
(g6
S'\x81\xaa\xc4h8R\xc3@'
p225
tp226
Rp227
ag2
(g6
S'\xdal\xed\x93y\x91\xc3@'
p228
tp229
Rp230
ag2
(g6
S'\xaf\x01U\xe7\x10\x9a\xc3@'
p231
tp232
Rp233
ag2
(g6
S':}b\x80V\xa2\xc3@'
p234
tp235
Rp236
ag2
(g6
S':}b\x80V\xa2\xc3@'
p237
tp238
Rp239
ag2
(g6
S'U:Bz\xb2\xeb\xc3@'
p240
tp241
Rp242
ag2
(g6
S'\xe6>\xcc\x16Yh\xc4@'
p243
tp244
Rp245
ag2
(g6
S'\xe6>\xcc\x16Yh\xc4@'
p246
tp247
Rp248
ag2
(g6
S'|=\xb7\x8f\xdd\x9c\xc4@'
p249
tp250
Rp251
aa(lp252
g2
(g6
S'\x1e]\xdeF\xc9\xaf\xbc@'
p253
tp254
Rp255
ag2
(g6
S'r\xb9\x7f\xbe@\x19\xc1@'
p256
tp257
Rp258
ag2
(g6
S'- v\x97\xf8m\xc0@'
p259
tp260
Rp261
ag2
(g6
S'L\xc0\xa5.-\xc8\xbd@'
p262
tp263
Rp264
ag2
(g6
S'\xc75[w\x93P\xbd@'
p265
tp266
Rp267
ag2
(g6
S'x\x1c\x03\r\xf8o\xbb@'
p268
tp269
Rp270
ag2
(g6
S'\xb4\x81\x9f[W\xf8\xba@'
p271
tp272
Rp273
ag2
(g6
S'^$\xf9|J\xdf\xbe@'
p274
tp275
Rp276
ag2
(g6
S'\xbe\xf7:\xce\x96\xdf\xbe@'
p277
tp278
Rp279
ag2
(g6
S'\xbe\xf7:\xce\x96\xdf\xbe@'
p280
tp281
Rp282
ag2
(g6
S'\xb9\xd1\x81\xaa\x1a\xfb\xc0@'
p283
tp284
Rp285
ag2
(g6
S'\xb9\xd1\x81\xaa\x1a\xfb\xc0@'
p286
tp287
Rp288
ag2
(g6
S'\xd0\xdc\x11\xad\xfb\xc1\xc1@'
p289
tp290
Rp291
ag2
(g6
S'\xc0\x81x{r\xa3\xc2@'
p292
tp293
Rp294
ag2
(g6
S'\xba)\xbc\x9a\xea;\xc3@'
p295
tp296
Rp297
ag2
(g6
S'2\xb3\x0b\xed\x98S\xc3@'
p298
tp299
Rp300
ag2
(g6
S'2\xb3\x0b\xed\x98S\xc3@'
p301
tp302
Rp303
ag2
(g6
S'2\xb3\x0b\xed\x98S\xc3@'
p304
tp305
Rp306
ag2
(g6
S'2\xb3\x0b\xed\x98S\xc3@'
p307
tp308
Rp309
ag2
(g6
S'2\xb3\x0b\xed\x98S\xc3@'
p310
tp311
Rp312
aa(lp313
cMultiNEAT._MultiNEAT
Genome
p314
(tRp315
S'22 serialization::archive 15 0 0 60 0 0 3 0 0 0 1 1 0.00000000000000000e+00 0.00000000000000000e+00 0.00000000000000000e+00 0.00000000000000000e+00 0 0 1 0.00000000000000000e+00 2 2 0.00000000000000000e+00 0.00000000000000000e+00 0.00000000000000000e+00 0.00000000000000000e+00 0 0 1 0.00000000000000000e+00 3 4 1.00000000000000000e+00 5.00000000000000000e-01 0.00000000000000000e+00 6.21307372115552425e-01 0 0 1 1.00000000000000000e+00 0 0 2 0 0 0 1 3 1 0 5.99933021934702992e-01 2 3 2 0 9.44685364142060280e-01 2 1 1.06368725856818601e+04 0.00000000000000000e+00 0 0.00000000000000000e+00 1'
p316
bag314
(tRp317
S'22 serialization::archive 15 0 0 172 0 0 3 0 0 0 1 1 0.00000000000000000e+00 0.00000000000000000e+00 0.00000000000000000e+00 0.00000000000000000e+00 0 0 1 0.00000000000000000e+00 2 2 0.00000000000000000e+00 0.00000000000000000e+00 0.00000000000000000e+00 0.00000000000000000e+00 0 0 1 0.00000000000000000e+00 3 4 1.00000000000000000e+00 5.00000000000000000e-01 0.00000000000000000e+00 6.21307372115552425e-01 0 0 1 1.00000000000000000e+00 0 0 2 0 0 0 1 3 1 0 6.07253186404705048e-01 2 3 2 0 9.44685364142060280e-01 2 1 1.06390084858690116e+04 0.00000000000000000e+00 0 0.00000000000000000e+00 1'
p318
bag314
(tRp319
S'22 serialization::archive 15 0 0 434 0 0 3 0 0 0 1 1 0.00000000000000000e+00 0.00000000000000000e+00 0.00000000000000000e+00 0.00000000000000000e+00 0 0 1 0.00000000000000000e+00 2 2 0.00000000000000000e+00 0.00000000000000000e+00 0.00000000000000000e+00 0.00000000000000000e+00 0 0 1 0.00000000000000000e+00 3 4 1.00000000000000000e+00 5.00000000000000000e-01 0.00000000000000000e+00 4.54507078975439072e-02 0 0 1 1.00000000000000000e+00 0 0 2 0 0 0 1 3 1 0 6.66616398096084639e-01 2 3 2 0 1.17896611755713820e+00 2 1 1.08035610860302295e+04 0.00000000000000000e+00 0 0.00000000000000000e+00 1'
p320
bag314
(tRp321
S'22 serialization::archive 15 0 0 450 0 0 3 0 0 0 1 1 0.00000000000000000e+00 0.00000000000000000e+00 0.00000000000000000e+00 0.00000000000000000e+00 0 0 1 0.00000000000000000e+00 2 2 0.00000000000000000e+00 0.00000000000000000e+00 0.00000000000000000e+00 0.00000000000000000e+00 0 0 1 0.00000000000000000e+00 3 4 1.00000000000000000e+00 5.00000000000000000e-01 0.00000000000000000e+00 4.54507078975439072e-02 0 0 1 1.00000000000000000e+00 0 0 2 0 0 0 1 3 1 0 6.66616398096084639e-01 2 3 2 0 1.17896611755713820e+00 2 1 1.08035610860302295e+04 0.00000000000000000e+00 0 0.00000000000000000e+00 1'
p322
bag314
(tRp323
S'22 serialization::archive 15 0 0 600 0 0 3 0 0 0 1 1 0.00000000000000000e+00 0.00000000000000000e+00 0.00000000000000000e+00 0.00000000000000000e+00 0 0 1 0.00000000000000000e+00 2 2 0.00000000000000000e+00 0.00000000000000000e+00 0.00000000000000000e+00 0.00000000000000000e+00 0 0 1 0.00000000000000000e+00 3 4 1.00000000000000000e+00 5.00000000000000000e-01 0.00000000000000000e+00 4.54507078975439072e-02 0 0 1 1.00000000000000000e+00 0 0 2 0 0 0 1 3 1 0 6.66616398096084639e-01 2 3 2 0 1.17896611755713820e+00 2 1 1.08035610860302295e+04 0.00000000000000000e+00 0 0.00000000000000000e+00 1'
p324
bag314
(tRp325
S'22 serialization::archive 15 0 0 750 0 0 3 0 0 0 1 1 0.00000000000000000e+00 0.00000000000000000e+00 0.00000000000000000e+00 0.00000000000000000e+00 0 0 1 0.00000000000000000e+00 2 2 0.00000000000000000e+00 0.00000000000000000e+00 0.00000000000000000e+00 0.00000000000000000e+00 0 0 1 0.00000000000000000e+00 3 4 1.00000000000000000e+00 5.00000000000000000e-01 0.00000000000000000e+00 4.54507078975439072e-02 0 0 1 1.00000000000000000e+00 0 0 2 0 0 0 1 3 1 0 6.66616398096084639e-01 2 3 2 0 1.17896611755713820e+00 2 1 1.08035610860302295e+04 0.00000000000000000e+00 0 0.00000000000000000e+00 1'
p326
bag314
(tRp327
S'22 serialization::archive 15 0 0 900 0 0 3 0 0 0 1 1 0.00000000000000000e+00 0.00000000000000000e+00 0.00000000000000000e+00 0.00000000000000000e+00 0 0 1 0.00000000000000000e+00 2 2 0.00000000000000000e+00 0.00000000000000000e+00 0.00000000000000000e+00 0.00000000000000000e+00 0 0 1 0.00000000000000000e+00 3 4 1.00000000000000000e+00 5.00000000000000000e-01 0.00000000000000000e+00 4.54507078975439072e-02 0 0 1 1.00000000000000000e+00 0 0 2 0 0 0 1 3 1 0 6.66616398096084639e-01 2 3 2 0 1.17896611755713820e+00 2 1 1.08035610860302295e+04 0.00000000000000000e+00 0 0.00000000000000000e+00 1'
p328
bag314
(tRp329
S'22 serialization::archive 15 0 0 1050 0 0 3 0 0 0 1 1 0.00000000000000000e+00 0.00000000000000000e+00 0.00000000000000000e+00 0.00000000000000000e+00 0 0 1 0.00000000000000000e+00 2 2 0.00000000000000000e+00 0.00000000000000000e+00 0.00000000000000000e+00 0.00000000000000000e+00 0 0 1 0.00000000000000000e+00 3 4 1.00000000000000000e+00 5.00000000000000000e-01 0.00000000000000000e+00 4.54507078975439072e-02 0 0 1 1.00000000000000000e+00 0 0 2 0 0 0 1 3 1 0 6.66616398096084639e-01 2 3 2 0 1.17896611755713820e+00 2 1 1.08035610860302295e+04 0.00000000000000000e+00 0 0.00000000000000000e+00 1'
p330
bag314
(tRp331
S'22 serialization::archive 15 0 0 1200 0 0 3 0 0 0 1 1 0.00000000000000000e+00 0.00000000000000000e+00 0.00000000000000000e+00 0.00000000000000000e+00 0 0 1 0.00000000000000000e+00 2 2 0.00000000000000000e+00 0.00000000000000000e+00 0.00000000000000000e+00 0.00000000000000000e+00 0 0 1 0.00000000000000000e+00 3 4 1.00000000000000000e+00 5.00000000000000000e-01 0.00000000000000000e+00 4.54507078975439072e-02 0 0 1 1.00000000000000000e+00 0 0 2 0 0 0 1 3 1 0 6.66616398096084639e-01 2 3 2 0 1.17896611755713820e+00 2 1 1.08035610860302295e+04 0.00000000000000000e+00 0 0.00000000000000000e+00 1'
p332
bag314
(tRp333
S'22 serialization::archive 15 0 0 1350 0 0 3 0 0 0 1 1 0.00000000000000000e+00 0.00000000000000000e+00 0.00000000000000000e+00 0.00000000000000000e+00 0 0 1 0.00000000000000000e+00 2 2 0.00000000000000000e+00 0.00000000000000000e+00 0.00000000000000000e+00 0.00000000000000000e+00 0 0 1 0.00000000000000000e+00 3 4 1.00000000000000000e+00 5.00000000000000000e-01 0.00000000000000000e+00 4.54507078975439072e-02 0 0 1 1.00000000000000000e+00 0 0 2 0 0 0 1 3 1 0 6.66616398096084639e-01 2 3 2 0 1.17896611755713820e+00 2 1 1.08035610860302295e+04 0.00000000000000000e+00 0 0.00000000000000000e+00 1'
p334
bag314
(tRp335
S'22 serialization::archive 15 0 0 1501 0 0 3 0 0 0 1 1 0.00000000000000000e+00 0.00000000000000000e+00 0.00000000000000000e+00 0.00000000000000000e+00 0 0 1 0.00000000000000000e+00 2 2 0.00000000000000000e+00 0.00000000000000000e+00 0.00000000000000000e+00 0.00000000000000000e+00 0 0 1 0.00000000000000000e+00 3 4 1.00000000000000000e+00 5.00000000000000000e-01 0.00000000000000000e+00 4.54507078975439072e-02 0 0 1 1.00000000000000000e+00 0 0 2 0 0 0 1 3 1 0 6.66616398096084639e-01 2 3 2 0 1.17896611755713820e+00 2 1 1.08035610860302295e+04 0.00000000000000000e+00 0 0.00000000000000000e+00 1'
p336
bag314
(tRp337
S'22 serialization::archive 15 0 0 1652 0 0 3 0 0 0 1 1 0.00000000000000000e+00 0.00000000000000000e+00 0.00000000000000000e+00 0.00000000000000000e+00 0 0 1 0.00000000000000000e+00 2 2 0.00000000000000000e+00 0.00000000000000000e+00 0.00000000000000000e+00 0.00000000000000000e+00 0 0 1 0.00000000000000000e+00 3 4 1.00000000000000000e+00 5.00000000000000000e-01 0.00000000000000000e+00 4.54507078975439072e-02 0 0 1 1.00000000000000000e+00 0 0 2 0 0 0 1 3 1 0 6.66616398096084639e-01 2 3 2 0 1.17896611755713820e+00 2 1 1.08035610860302295e+04 0.00000000000000000e+00 0 0.00000000000000000e+00 1'
p338
bag314
(tRp339
S'22 serialization::archive 15 0 0 1801 0 0 3 0 0 0 1 1 0.00000000000000000e+00 0.00000000000000000e+00 0.00000000000000000e+00 0.00000000000000000e+00 0 0 1 0.00000000000000000e+00 2 2 0.00000000000000000e+00 0.00000000000000000e+00 0.00000000000000000e+00 0.00000000000000000e+00 0 0 1 0.00000000000000000e+00 3 4 1.00000000000000000e+00 5.00000000000000000e-01 0.00000000000000000e+00 4.54507078975439072e-02 0 0 1 1.00000000000000000e+00 0 0 2 0 0 0 1 3 1 0 6.66616398096084639e-01 2 3 2 0 1.17896611755713820e+00 2 1 1.08035610860302295e+04 0.00000000000000000e+00 0 0.00000000000000000e+00 1'
p340
bag314
(tRp341
S'22 serialization::archive 15 0 0 1968 0 0 3 0 0 0 1 1 0.00000000000000000e+00 0.00000000000000000e+00 0.00000000000000000e+00 0.00000000000000000e+00 0 0 1 0.00000000000000000e+00 2 2 0.00000000000000000e+00 0.00000000000000000e+00 0.00000000000000000e+00 0.00000000000000000e+00 0 0 1 0.00000000000000000e+00 3 4 1.00000000000000000e+00 5.00000000000000000e-01 0.00000000000000000e+00 4.54507078975439072e-02 0 0 1 1.00000000000000000e+00 0 0 2 0 0 0 1 3 1 0 6.66616398096084639e-01 2 3 2 0 1.18923464380204691e+00 2 1 1.08041284513704177e+04 0.00000000000000000e+00 0 0.00000000000000000e+00 1'
p342
bag314
(tRp343
S'22 serialization::archive 15 0 0 2101 0 0 3 0 0 0 1 1 0.00000000000000000e+00 0.00000000000000000e+00 0.00000000000000000e+00 0.00000000000000000e+00 0 0 1 0.00000000000000000e+00 2 2 0.00000000000000000e+00 0.00000000000000000e+00 0.00000000000000000e+00 0.00000000000000000e+00 0 0 1 0.00000000000000000e+00 3 4 1.00000000000000000e+00 5.00000000000000000e-01 0.00000000000000000e+00 4.54507078975439072e-02 0 0 1 1.00000000000000000e+00 0 0 2 0 0 0 1 3 1 0 6.66616398096084639e-01 2 3 2 0 1.18923464380204691e+00 2 1 1.08041284513704177e+04 0.00000000000000000e+00 0 0.00000000000000000e+00 1'
p344
bag314
(tRp345
S'22 serialization::archive 15 0 0 2250 0 0 3 0 0 0 1 1 0.00000000000000000e+00 0.00000000000000000e+00 0.00000000000000000e+00 0.00000000000000000e+00 0 0 1 0.00000000000000000e+00 2 2 0.00000000000000000e+00 0.00000000000000000e+00 0.00000000000000000e+00 0.00000000000000000e+00 0 0 1 0.00000000000000000e+00 3 4 1.00000000000000000e+00 5.00000000000000000e-01 0.00000000000000000e+00 4.54507078975439072e-02 0 0 1 1.00000000000000000e+00 0 0 2 0 0 0 1 3 1 0 6.66616398096084639e-01 2 3 2 0 1.18923464380204691e+00 2 1 1.08041284513704177e+04 0.00000000000000000e+00 0 0.00000000000000000e+00 1'
p346
bag314
(tRp347
S'22 serialization::archive 15 0 0 2400 0 0 3 0 0 0 1 1 0.00000000000000000e+00 0.00000000000000000e+00 0.00000000000000000e+00 0.00000000000000000e+00 0 0 1 0.00000000000000000e+00 2 2 0.00000000000000000e+00 0.00000000000000000e+00 0.00000000000000000e+00 0.00000000000000000e+00 0 0 1 0.00000000000000000e+00 3 4 1.00000000000000000e+00 5.00000000000000000e-01 0.00000000000000000e+00 4.54507078975439072e-02 0 0 1 1.00000000000000000e+00 0 0 2 0 0 0 1 3 1 0 6.66616398096084639e-01 2 3 2 0 1.18923464380204691e+00 2 1 1.08041284513704177e+04 0.00000000000000000e+00 0 0.00000000000000000e+00 1'
p348
bag314
(tRp349
S'22 serialization::archive 15 0 0 2550 0 0 3 0 0 0 1 1 0.00000000000000000e+00 0.00000000000000000e+00 0.00000000000000000e+00 0.00000000000000000e+00 0 0 1 0.00000000000000000e+00 2 2 0.00000000000000000e+00 0.00000000000000000e+00 0.00000000000000000e+00 0.00000000000000000e+00 0 0 1 0.00000000000000000e+00 3 4 1.00000000000000000e+00 5.00000000000000000e-01 0.00000000000000000e+00 4.54507078975439072e-02 0 0 1 1.00000000000000000e+00 0 0 2 0 0 0 1 3 1 0 6.66616398096084639e-01 2 3 2 0 1.18923464380204691e+00 2 1 1.08041284513704177e+04 0.00000000000000000e+00 0 0.00000000000000000e+00 1'
p350
bag314
(tRp351
S'22 serialization::archive 15 0 0 2700 0 0 3 0 0 0 1 1 0.00000000000000000e+00 0.00000000000000000e+00 0.00000000000000000e+00 0.00000000000000000e+00 0 0 1 0.00000000000000000e+00 2 2 0.00000000000000000e+00 0.00000000000000000e+00 0.00000000000000000e+00 0.00000000000000000e+00 0 0 1 0.00000000000000000e+00 3 4 1.00000000000000000e+00 5.00000000000000000e-01 0.00000000000000000e+00 4.54507078975439072e-02 0 0 1 1.00000000000000000e+00 0 0 2 0 0 0 1 3 1 0 6.66616398096084639e-01 2 3 2 0 1.18923464380204691e+00 2 1 1.08041284513704177e+04 0.00000000000000000e+00 0 0.00000000000000000e+00 1'
p352
bag314
(tRp353
S'22 serialization::archive 15 0 0 2851 0 0 3 0 0 0 1 1 0.00000000000000000e+00 0.00000000000000000e+00 0.00000000000000000e+00 0.00000000000000000e+00 0 0 1 0.00000000000000000e+00 2 2 0.00000000000000000e+00 0.00000000000000000e+00 0.00000000000000000e+00 0.00000000000000000e+00 0 0 1 0.00000000000000000e+00 3 4 1.00000000000000000e+00 5.00000000000000000e-01 0.00000000000000000e+00 4.54507078975439072e-02 0 0 1 1.00000000000000000e+00 0 0 2 0 0 0 1 3 1 0 6.66616398096084639e-01 2 3 2 0 1.18923464380204691e+00 2 1 1.08041284513704177e+04 0.00000000000000000e+00 0 0.00000000000000000e+00 1'
p354
baa(lp355
g314
(tRp356
S'22 serialization::archive 15 0 0 60 0 0 3 0 0 0 1 1 0.00000000000000000e+00 0.00000000000000000e+00 0.00000000000000000e+00 0.00000000000000000e+00 0 0 1 0.00000000000000000e+00 2 2 0.00000000000000000e+00 0.00000000000000000e+00 0.00000000000000000e+00 0.00000000000000000e+00 0 0 1 0.00000000000000000e+00 3 4 1.00000000000000000e+00 5.00000000000000000e-01 0.00000000000000000e+00 6.21307372115552425e-01 0 0 1 1.00000000000000000e+00 0 0 2 0 0 0 1 3 1 0 5.99933021934702992e-01 2 3 2 0 9.44685364142060280e-01 2 1 1.06368725856818601e+04 0.00000000000000000e+00 0 0.00000000000000000e+00 1'
p357
bag314
(tRp358
S'22 serialization::archive 15 0 0 172 0 0 3 0 0 0 1 1 0.00000000000000000e+00 0.00000000000000000e+00 0.00000000000000000e+00 0.00000000000000000e+00 0 0 1 0.00000000000000000e+00 2 2 0.00000000000000000e+00 0.00000000000000000e+00 0.00000000000000000e+00 0.00000000000000000e+00 0 0 1 0.00000000000000000e+00 3 4 1.00000000000000000e+00 5.00000000000000000e-01 0.00000000000000000e+00 6.21307372115552425e-01 0 0 1 1.00000000000000000e+00 0 0 2 0 0 0 1 3 1 0 6.07253186404705048e-01 2 3 2 0 9.44685364142060280e-01 2 1 1.06390084858690116e+04 0.00000000000000000e+00 0 0.00000000000000000e+00 1'
p359
bag314
(tRp360
S'22 serialization::archive 15 0 0 434 0 0 3 0 0 0 1 1 0.00000000000000000e+00 0.00000000000000000e+00 0.00000000000000000e+00 0.00000000000000000e+00 0 0 1 0.00000000000000000e+00 2 2 0.00000000000000000e+00 0.00000000000000000e+00 0.00000000000000000e+00 0.00000000000000000e+00 0 0 1 0.00000000000000000e+00 3 4 1.00000000000000000e+00 5.00000000000000000e-01 0.00000000000000000e+00 4.54507078975439072e-02 0 0 1 1.00000000000000000e+00 0 0 2 0 0 0 1 3 1 0 6.66616398096084639e-01 2 3 2 0 1.17896611755713820e+00 2 1 1.08035610860302295e+04 0.00000000000000000e+00 0 0.00000000000000000e+00 1'
p361
bag314
(tRp362
S'22 serialization::archive 15 0 0 1968 0 0 3 0 0 0 1 1 0.00000000000000000e+00 0.00000000000000000e+00 0.00000000000000000e+00 0.00000000000000000e+00 0 0 1 0.00000000000000000e+00 2 2 0.00000000000000000e+00 0.00000000000000000e+00 0.00000000000000000e+00 0.00000000000000000e+00 0 0 1 0.00000000000000000e+00 3 4 1.00000000000000000e+00 5.00000000000000000e-01 0.00000000000000000e+00 4.54507078975439072e-02 0 0 1 1.00000000000000000e+00 0 0 2 0 0 0 1 3 1 0 6.66616398096084639e-01 2 3 2 0 1.18923464380204691e+00 2 1 1.08041284513704177e+04 0.00000000000000000e+00 0 0.00000000000000000e+00 1'
p363
baaI0
a.